(dp0
S'EX_phe_L_e'
p1
F-5.0
sS'EX_dcyt_e'
p2
F-5.0
sS'EX_val_L_e'
p3
F-5.0
sS'EX_hg2_e'
p4
F-1000.0
sS'EX_ins_e'
p5
F-5.0
sS'EX_cobalt2_e'
p6
F-1000.0
sS'EX_arg_L_e'
p7
F-5.0
sS'EX_nac_e'
p8
F-5.0
sS'EX_his_L_e'
p9
F-5.0
sS'EX_tungs_e'
p10
F-1000.0
sS'EX_tyr_L_e'
p11
F-5.0
sS'EX_pnto_R_e'
p12
F-5.0
sS'EX_h2o_e'
p13
F-100.0
sS'EX_h_e'
p14
F-100.0
sS'EX_mobd_e'
p15
F-1000.0
sS'EX_mg2_e'
p16
F-1000.0
sS'EX_glc_e'
p17
F-5.0
sS'EX_cd2_e'
p18
F-1000.0
sS'EX_so4_e'
p19
F-1000.0
sS'EX_co2_e'
p20
F-1000.0
sS'EX_ala_L_e'
p21
F-5.0
sS'EX_cys_L_e'
p22
F-5.0
sS'EX_k_e'
p23
F-1000.0
sS'EX_cu2_e'
p24
F-1000.0
sS'EX_na1_e'
p25
F-1000.0
sS'EX_leu_L_e'
p26
F-5.0
sS'EX_fe3_e'
p27
F-1000.0
sS'EX_fe2_e'
p28
F-1000.0
sS'EX_pro_L_e'
p29
F-5.0
sS'EX_cbl1_e'
p30
F-0.01
sS'EX_thr_L_e'
p31
F-5.0
sS'EX_adn_e'
p32
F-5.0
sS'EX_trp_L_e'
p33
F-5.0
sS'EX_pi_e'
p34
F-1000.0
sS'EX_cl_e'
p35
F-1000.0
sS'EX_thymd_e'
p36
F-5.0
sS'EX_mn2_e'
p37
F-1000.0
sS'EX_uri_e'
p38
F-5.0
sS'EX_ura_e'
p39
F-5.0
sS'EX_glu_L_e'
p40
F-5.0
sS'EX_aso3_e'
p41
F-1000.0
sS'EX_hxan_e'
p42
F-5.0
sS'EX_dad_2_e'
p43
F-5.0
sS'EX_ile_L_e'
p44
F-5.0
sS'EX_o2_e'
p45
F-18.5
sS'EX_gly_e'
p46
F-5.0
sS'EX_ser_L_e'
p47
F-5.0
sS'EX_ca2_e'
p48
F-1000.0
sS'EX_zn2_e'
p49
F-1000.0
sS'EX_asp_L_e'
p50
F-5.0
sS'EX_met_L_e'
p51
F-5.0
sS'EX_lys_L_e'
p52
F-5.0
s.