(dp0
S'GLC_CHEM_mu=0.46_P'
p1
(dp2
S'EX_glc_e'
p3
F-5.52
sS'EX_o2_e'
p4
I-1000
ssS'FRU_BATCH_mu=0.65_S'
p5
(dp6
g4
I-1000
sS'EX_fru_e'
p7
I-1000
ssS'GLC_CHEM_mu=0.50_S'
p8
(dp9
S'EX_glc_e'
p10
I-1000
sg4
I-1000
ssS'GLC_CHEM_mu=0.11_V'
p11
(dp12
S'EX_glc_e'
p13
I-1000
sg4
I-1000
ssS'XYL_BATCH_mu=0.55_S'
p14
(dp15
S'EX_xyl_D_e'
p16
I-1000
sg4
I-1000
ssS'GLC_CHEM_mu=0.12_S'
p17
(dp18
S'EX_glc_e'
p19
I-1000
sg4
I-1000
ssS'ACE_BATCH_mu=0.3_S'
p20
(dp21
S'EX_ac_e'
p22
I-1000
sg4
I-1000
ssS'GLC_CHEM_mu=0.21_V'
p23
(dp24
S'EX_glc_e'
p25
I-1000
sg4
I-1000
ssS'GAM_BATCH_mu=0.46_S'
p26
(dp27
g4
I-1000
sS'EX_gam_e'
p28
I-1000
ssS'GLC_CHEM_mu=0.21_P'
p29
(dp30
S'EX_glc_e'
p31
F-2.66
sg4
I-1000
ssS'GLC_CHEM_mu=0.20_S'
p32
(dp33
S'EX_glc_e'
p34
I-1000
sg4
I-1000
ssS'GLYC+AA_BATCH_mu=1.27_S'
p35
(dp36
S'EX_phe_L_e'
p37
I-1000
sS'EX_val_L_e'
p38
I-1000
sS'EX_leu_L_e'
p39
I-1000
sS'EX_arg_L_e'
p40
I-1000
sS'EX_his_L_e'
p41
I-1000
sS'EX_tyr_L_e'
p42
I-1000
sS'EX_glyc_e'
p43
I-1000
sS'EX_ala_L_e'
p44
I-1000
sS'EX_cys_L_e'
p45
I-1000
sS'EX_ile_L_e'
p46
I-1000
sS'EX_pro_L_e'
p47
I-1000
sS'EX_thr_L_e'
p48
I-1000
sS'EX_trp_L_e'
p49
I-1000
sS'EX_ura_e'
p50
I-1000
sS'EX_glu_L_e'
p51
I-1000
sS'EX_ade_e'
p52
I-1000
sg4
I-1000
sS'EX_gly_e'
p53
I-1000
sS'EX_ser_L_e'
p54
I-1000
sS'EX_gln_L_e'
p55
I-1000
sS'EX_asp_L_e'
p56
I-1000
sS'EX_met_L_e'
p57
I-1000
sS'EX_lys_L_e'
p58
I-1000
sS'EX_asn_L_e'
p59
I-1000
ssS'GLC_CHEM_mu=0.41_P'
p60
(dp61
S'EX_glc_e'
p62
F-4.36
sg4
I-1000
ssS'PYR_BATCH_mu=0.40_S'
p63
(dp64
g4
I-1000
sS'EX_pyr_e'
p65
I-1000
ssS'GLC_CHEM_mu=0.49_V'
p66
(dp67
S'EX_glc_e'
p68
I-1000
sg4
I-1000
ssS'GLC_CHEM_mu=0.40_V'
p69
(dp70
S'EX_glc_e'
p71
I-1000
sg4
I-1000
ssS'GLC_CHEM_mu=0.22_P'
p72
(dp73
S'EX_glc_e'
p74
F-3.81
sg4
I-1000
ssS'GLC@42deg_BATCH_mu=0.66_S'
p75
(dp76
S'EX_glc_e'
p77
I-1000
sg4
I-1000
ssS'GAL_BATCH_mu=0.26_S'
p78
(dp79
S'EX_gal_e'
p80
I-1000
sg4
I-1000
ssS'GLYC_BATCH_mu=0.47_S'
p81
(dp82
S'EX_glyc_e'
p83
I-1000
sg4
I-1000
ssS'GLC@pH6_BATCH_mu=0.63_S'
p84
(dp85
S'EX_glc_e'
p86
I-1000
sg4
I-1000
ssS'MAN_BATCH_mu=0.47_S'
p87
(dp88
S'EX_man_e'
p89
I-1000
sg4
I-1000
ssS'GLC_CHEM_mu=0.31_V'
p90
(dp91
S'EX_glc_e'
p92
I-1000
sg4
I-1000
ssS'GLC_CHEM_mu=0.36_P'
p93
(dp94
S'EX_glc_e'
p95
F-3.25
sg4
I-1000
ssS'GLC_CHEM_mu=0.31_P'
p96
(dp97
S'EX_glc_e'
p98
F-2.78
sg4
I-1000
ssS'GLC_CHEM_mu=0.51_P'
p99
(dp100
S'EX_glc_e'
p101
F-6.24
sg4
I-1000
ssS'GLC_CHEM_mu=0.26_P'
p102
(dp103
S'EX_glc_e'
p104
F-4.91
sg4
I-1000
ssS'LB_BATCH_mu=1.9_S'
p105
(dp106
S'EX_phe_L_e'
p107
I-1000
sS'EX_dcyt_e'
p108
I-1000
sS'EX_val_L_e'
p109
I-1000
sS'EX_hg2_e'
p110
I-1000
sS'EX_ins_e'
p111
I-1000
sS'EX_cobalt2_e'
p112
I-1000
sS'EX_arg_L_e'
p113
I-1000
sS'EX_nac_e'
p114
I-1000
sS'EX_his_L_e'
p115
I-1000
sS'EX_tungs_e'
p116
I-1000
sS'EX_tyr_L_e'
p117
I-1000
sS'EX_pnto_R_e'
p118
I-1000
sS'EX_h2o_e'
p119
I-1000
sS'EX_h_e'
p120
I-1000
sS'EX_mobd_e'
p121
I-1000
sS'EX_mg2_e'
p122
I-1000
sS'EX_glc_e'
p123
I-1000
sS'EX_cd2_e'
p124
I-1000
sS'EX_so4_e'
p125
I-1000
sS'EX_co2_e'
p126
I-1000
sS'EX_ala_L_e'
p127
I-1000
sS'EX_cys_L_e'
p128
I-1000
sS'EX_k_e'
p129
I-1000
sS'EX_cu2_e'
p130
I-1000
sS'EX_na1_e'
p131
I-1000
sS'EX_leu_L_e'
p132
I-1000
sS'EX_fe3_e'
p133
I-1000
sS'EX_fe2_e'
p134
I-1000
sS'EX_pro_L_e'
p135
I-1000
sS'EX_cbl1_e'
p136
I-1000
sS'EX_thr_L_e'
p137
I-1000
sS'EX_adn_e'
p138
I-1000
sS'EX_trp_L_e'
p139
I-1000
sS'EX_pi_e'
p140
I-1000
sS'EX_cl_e'
p141
I-1000
sS'EX_thymd_e'
p142
I-1000
sS'EX_mn2_e'
p143
I-1000
sS'EX_uri_e'
p144
I-1000
sS'EX_ura_e'
p145
I-1000
sS'EX_glu_L_e'
p146
I-1000
sS'EX_aso3_e'
p147
I-1000
sS'EX_hxan_e'
p148
I-1000
sS'EX_dad_2_e'
p149
I-1000
sS'EX_ile_L_e'
p150
I-1000
sS'EX_o2_e'
p151
I-1000
sS'EX_gly_e'
p152
I-1000
sS'EX_ser_L_e'
p153
I-1000
sS'EX_ca2_e'
p154
I-1000
sS'EX_zn2_e'
p155
I-1000
sS'EX_asp_L_e'
p156
I-1000
sS'EX_met_L_e'
p157
I-1000
sS'EX_lys_L_e'
p158
I-1000
ssS'GLC_CHEM_mu=0.35_S'
p159
(dp160
S'EX_glc_e'
p161
I-1000
sg4
I-1000
ssS'SUCC_BATCH_mu=0.44_S'
p162
(dp163
S'EX_succ_e'
p164
I-1000
sg4
I-1000
ssS'FUM_BATCH_mu=0.42_S'
p165
(dp166
S'EX_fum_e'
p167
I-1000
sg4
I-1000
ssS'GLC_BATCH_mu=0.58_S'
p168
(dp169
S'EX_glc_e'
p170
I-1000
sg4
I-1000
ssS'GLC+SALTS_BATCH_mu=0.55_S'
p171
(dp172
S'EX_glc_e'
p173
I-1000
sg4
I-1000
ss.